; ModuleID = '54/1764.cpp'
source_filename = "54/1764.cpp"
target datalayout = "e-m:e-p270:32:32-p271:32:32-p272:64:64-i64:64-f80:128-n8:16:32:64-S128"
target triple = "x86_64-pc-linux-gnu"

%"class.std::ios_base::Init" = type { i8 }
%"class.std::basic_istream" = type { i32 (...)**, i64, %"class.std::basic_ios" }
%"class.std::basic_ios" = type { %"class.std::ios_base", %"class.std::basic_ostream"*, i8, i8, %"class.std::basic_streambuf"*, %"class.std::ctype"*, %"class.std::num_put"*, %"class.std::num_get"* }
%"class.std::ios_base" = type { i32 (...)**, i64, i64, i32, i32, i32, %"struct.std::ios_base::_Callback_list"*, %"struct.std::ios_base::_Words", [8 x %"struct.std::ios_base::_Words"], i32, %"struct.std::ios_base::_Words"*, %"class.std::locale" }
%"struct.std::ios_base::_Callback_list" = type { %"struct.std::ios_base::_Callback_list"*, void (i32, %"class.std::ios_base"*, i32)*, i32, i32 }
%"struct.std::ios_base::_Words" = type { i8*, i64 }
%"class.std::locale" = type { %"class.std::locale::_Impl"* }
%"class.std::locale::_Impl" = type { i32, %"class.std::locale::facet"**, i64, %"class.std::locale::facet"**, i8** }
%"class.std::locale::facet" = type <{ i32 (...)**, i32, [4 x i8] }>
%"class.std::basic_ostream" = type { i32 (...)**, %"class.std::basic_ios" }
%"class.std::basic_streambuf" = type { i32 (...)**, i8*, i8*, i8*, i8*, i8*, i8*, %"class.std::locale" }
%"class.std::ctype" = type <{ %"class.std::locale::facet.base", [4 x i8], %struct.__locale_struct*, i8, [7 x i8], i32*, i32*, i16*, i8, [256 x i8], [256 x i8], i8, [6 x i8] }>
%"class.std::locale::facet.base" = type <{ i32 (...)**, i32 }>
%struct.__locale_struct = type { [13 x %struct.__locale_data*], i16*, i32*, i32*, [13 x i8*] }
%struct.__locale_data = type opaque
%"class.std::num_put" = type { %"class.std::locale::facet.base", [4 x i8] }
%"class.std::num_get" = type { %"class.std::locale::facet.base", [4 x i8] }

@_ZStL8__ioinit = internal global %"class.std::ios_base::Init" zeroinitializer, align 1
@__dso_handle = external hidden global i8
@n = dso_local global double 0.000000e+00, align 8
@k = dso_local global double 0.000000e+00, align 8
@times = dso_local global i32 1, align 4
@_ZSt3cin = external dso_local global %"class.std::basic_istream", align 8
@_ZSt4cout = external dso_local global %"class.std::basic_ostream", align 8
@llvm.global_ctors = appending global [1 x { i32, void ()*, i8* }] [{ i32, void ()*, i8* } { i32 65535, void ()* @_GLOBAL__sub_I_1764.cpp, i8* null }]

; Function Attrs: noinline uwtable
define internal void @__cxx_global_var_init() #0 section ".text.startup" {
  call void @_ZNSt8ios_base4InitC1Ev(%"class.std::ios_base::Init"* @_ZStL8__ioinit)
  %1 = call i32 @__cxa_atexit(void (i8*)* bitcast (void (%"class.std::ios_base::Init"*)* @_ZNSt8ios_base4InitD1Ev to void (i8*)*), i8* getelementptr inbounds (%"class.std::ios_base::Init", %"class.std::ios_base::Init"* @_ZStL8__ioinit, i32 0, i32 0), i8* @__dso_handle) #3
  ret void
}

declare dso_local void @_ZNSt8ios_base4InitC1Ev(%"class.std::ios_base::Init"*) unnamed_addr #1

; Function Attrs: nounwind
declare dso_local void @_ZNSt8ios_base4InitD1Ev(%"class.std::ios_base::Init"*) unnamed_addr #2

; Function Attrs: nounwind
declare dso_local i32 @__cxa_atexit(void (i8*)*, i8*, i8*) #3

; Function Attrs: noinline norecurse uwtable
define dso_local i32 @main() #4 {
  %1 = alloca i32, align 4
  store i32 0, i32* %1, align 4
  %2 = call dereferenceable(280) %"class.std::basic_istream"* @_ZNSirsERd(%"class.std::basic_istream"* @_ZSt3cin, double* dereferenceable(8) @n)
  %3 = call dereferenceable(280) %"class.std::basic_istream"* @_ZNSirsERd(%"class.std::basic_istream"* %2, double* dereferenceable(8) @k)
  store i32 1, i32* @times, align 4
  br label %4

4:                                                ; preds = %25, %0
  %5 = load double, double* @n, align 8
  %6 = load double, double* @k, align 8
  %7 = load double, double* @n, align 8
  %8 = call double @_Z5appleddd(double %5, double %6, double %7)
  %9 = fptosi double %8 to i32
  %10 = sitofp i32 %9 to double
  %11 = load double, double* @n, align 8
  %12 = load double, double* @k, align 8
  %13 = load double, double* @n, align 8
  %14 = call double @_Z5appleddd(double %11, double %12, double %13)
  %15 = fcmp oeq double %10, %14
  br i1 %15, label %16, label %24

16:                                               ; preds = %4
  %17 = load double, double* @n, align 8
  %18 = load double, double* @k, align 8
  %19 = load double, double* @n, align 8
  %20 = call double @_Z5appleddd(double %17, double %18, double %19)
  %21 = fptosi double %20 to i32
  %22 = call dereferenceable(272) %"class.std::basic_ostream"* @_ZNSolsEi(%"class.std::basic_ostream"* @_ZSt4cout, i32 %21)
  %23 = call dereferenceable(272) %"class.std::basic_ostream"* @_ZNSolsEPFRSoS_E(%"class.std::basic_ostream"* %22, %"class.std::basic_ostream"* (%"class.std::basic_ostream"*)* @_ZSt4endlIcSt11char_traitsIcEERSt13basic_ostreamIT_T0_ES6_)
  br label %28

24:                                               ; preds = %4
  br label %25

25:                                               ; preds = %24
  %26 = load i32, i32* @times, align 4
  %27 = add nsw i32 %26, 1
  store i32 %27, i32* @times, align 4
  br label %4

28:                                               ; preds = %16
  ret i32 0
}

declare dso_local dereferenceable(280) %"class.std::basic_istream"* @_ZNSirsERd(%"class.std::basic_istream"*, double* dereferenceable(8)) #1

; Function Attrs: noinline uwtable
define dso_local double @_Z5appleddd(double %0, double %1, double %2) #0 {
  %4 = alloca double, align 8
  %5 = alloca double, align 8
  %6 = alloca double, align 8
  %7 = alloca double, align 8
  store double %0, double* %5, align 8
  store double %1, double* %6, align 8
  store double %2, double* %7, align 8
  %8 = load double, double* %7, align 8
  %9 = fcmp oeq double %8, 1.000000e+00
  br i1 %9, label %10, label %17

10:                                               ; preds = %3
  %11 = load i32, i32* @times, align 4
  %12 = sitofp i32 %11 to double
  %13 = load double, double* @n, align 8
  %14 = fmul double %12, %13
  %15 = load double, double* @k, align 8
  %16 = fadd double %14, %15
  store double %16, double* %4, align 8
  br label %30

17:                                               ; preds = %3
  %18 = load double, double* @n, align 8
  %19 = load double, double* @n, align 8
  %20 = fsub double %19, 1.000000e+00
  %21 = fdiv double %18, %20
  %22 = load double, double* %5, align 8
  %23 = load double, double* %6, align 8
  %24 = load double, double* %7, align 8
  %25 = fadd double %24, -1.000000e+00
  store double %25, double* %7, align 8
  %26 = call double @_Z5appleddd(double %22, double %23, double %25)
  %27 = fmul double %21, %26
  %28 = load double, double* @k, align 8
  %29 = fadd double %27, %28
  store double %29, double* %4, align 8
  br label %30

30:                                               ; preds = %17, %10
  %31 = load double, double* %4, align 8
  ret double %31
}

declare dso_local dereferenceable(272) %"class.std::basic_ostream"* @_ZNSolsEi(%"class.std::basic_ostream"*, i32) #1

declare dso_local dereferenceable(272) %"class.std::basic_ostream"* @_ZNSolsEPFRSoS_E(%"class.std::basic_ostream"*, %"class.std::basic_ostream"* (%"class.std::basic_ostream"*)*) #1

declare dso_local dereferenceable(272) %"class.std::basic_ostream"* @_ZSt4endlIcSt11char_traitsIcEERSt13basic_ostreamIT_T0_ES6_(%"class.std::basic_ostream"* dereferenceable(272)) #1

; Function Attrs: noinline uwtable
define internal void @_GLOBAL__sub_I_1764.cpp() #0 section ".text.startup" {
  call void @__cxx_global_var_init()
  ret void
}


!llvm.module.flags = !{!0}
!llvm.ident = !{!1}

!0 = !{i32 1, !"wchar_size", i32 4}
!1 = !{!"clang version 10.0.0-4ubuntu1 "}
